
lcd_own_char_disp_test1.elf:     file format elf32-avr

Sections:
Idx Name          Size      VMA       LMA       File off  Algn
  0 .text         000007f2  00000000  00000000  00000074  2**1
                  CONTENTS, ALLOC, LOAD, READONLY, CODE
  1 .data         00000004  00800060  000007f2  00000866  2**0
                  CONTENTS, ALLOC, LOAD, DATA
  2 .debug_aranges 00000020  00000000  00000000  0000086a  2**0
                  CONTENTS, READONLY, DEBUGGING
  3 .debug_pubnames 0000004a  00000000  00000000  0000088a  2**0
                  CONTENTS, READONLY, DEBUGGING
  4 .debug_info   000002a4  00000000  00000000  000008d4  2**0
                  CONTENTS, READONLY, DEBUGGING
  5 .debug_abbrev 00000130  00000000  00000000  00000b78  2**0
                  CONTENTS, READONLY, DEBUGGING
  6 .debug_line   000002ca  00000000  00000000  00000ca8  2**0
                  CONTENTS, READONLY, DEBUGGING
  7 .debug_frame  00000070  00000000  00000000  00000f74  2**2
                  CONTENTS, READONLY, DEBUGGING
  8 .debug_str    00000107  00000000  00000000  00000fe4  2**0
                  CONTENTS, READONLY, DEBUGGING
  9 .debug_loc    00000086  00000000  00000000  000010eb  2**0
                  CONTENTS, READONLY, DEBUGGING

Disassembly of section .text:

00000000 <__vectors>:
   0:	0c 94 2a 00 	jmp	0x54	; 0x54 <__ctors_end>
   4:	0c 94 3f 00 	jmp	0x7e	; 0x7e <__bad_interrupt>
   8:	0c 94 3f 00 	jmp	0x7e	; 0x7e <__bad_interrupt>
   c:	0c 94 3f 00 	jmp	0x7e	; 0x7e <__bad_interrupt>
  10:	0c 94 3f 00 	jmp	0x7e	; 0x7e <__bad_interrupt>
  14:	0c 94 3f 00 	jmp	0x7e	; 0x7e <__bad_interrupt>
  18:	0c 94 3f 00 	jmp	0x7e	; 0x7e <__bad_interrupt>
  1c:	0c 94 3f 00 	jmp	0x7e	; 0x7e <__bad_interrupt>
  20:	0c 94 3f 00 	jmp	0x7e	; 0x7e <__bad_interrupt>
  24:	0c 94 3f 00 	jmp	0x7e	; 0x7e <__bad_interrupt>
  28:	0c 94 3f 00 	jmp	0x7e	; 0x7e <__bad_interrupt>
  2c:	0c 94 3f 00 	jmp	0x7e	; 0x7e <__bad_interrupt>
  30:	0c 94 3f 00 	jmp	0x7e	; 0x7e <__bad_interrupt>
  34:	0c 94 3f 00 	jmp	0x7e	; 0x7e <__bad_interrupt>
  38:	0c 94 3f 00 	jmp	0x7e	; 0x7e <__bad_interrupt>
  3c:	0c 94 3f 00 	jmp	0x7e	; 0x7e <__bad_interrupt>
  40:	0c 94 3f 00 	jmp	0x7e	; 0x7e <__bad_interrupt>
  44:	0c 94 3f 00 	jmp	0x7e	; 0x7e <__bad_interrupt>
  48:	0c 94 3f 00 	jmp	0x7e	; 0x7e <__bad_interrupt>
  4c:	0c 94 3f 00 	jmp	0x7e	; 0x7e <__bad_interrupt>
  50:	0c 94 3f 00 	jmp	0x7e	; 0x7e <__bad_interrupt>

00000054 <__ctors_end>:
  54:	11 24       	eor	r1, r1
  56:	1f be       	out	0x3f, r1	; 63
  58:	cf e5       	ldi	r28, 0x5F	; 95
  5a:	d4 e0       	ldi	r29, 0x04	; 4
  5c:	de bf       	out	0x3e, r29	; 62
  5e:	cd bf       	out	0x3d, r28	; 61

00000060 <__do_copy_data>:
  60:	10 e0       	ldi	r17, 0x00	; 0
  62:	a0 e6       	ldi	r26, 0x60	; 96
  64:	b0 e0       	ldi	r27, 0x00	; 0
  66:	e2 ef       	ldi	r30, 0xF2	; 242
  68:	f7 e0       	ldi	r31, 0x07	; 7
  6a:	02 c0       	rjmp	.+4      	; 0x70 <.do_copy_data_start>

0000006c <.do_copy_data_loop>:
  6c:	05 90       	lpm	r0, Z+
  6e:	0d 92       	st	X+, r0

00000070 <.do_copy_data_start>:
  70:	a4 36       	cpi	r26, 0x64	; 100
  72:	b1 07       	cpc	r27, r17
  74:	d9 f7       	brne	.-10     	; 0x6c <.do_copy_data_loop>
  76:	0e 94 94 00 	call	0x128	; 0x128 <main>
  7a:	0c 94 f7 03 	jmp	0x7ee	; 0x7ee <_exit>

0000007e <__bad_interrupt>:
  7e:	0c 94 00 00 	jmp	0	; 0x0 <__vectors>

00000082 <ldata>:
void ldata(unsigned char x)
{
lcd=x&0xf0;
  82:	28 2f       	mov	r18, r24
  84:	20 7f       	andi	r18, 0xF0	; 240
  86:	22 bb       	out	0x12, r18	; 18
lcd|=(1<<rs);
  88:	90 9a       	sbi	0x12, 0	; 18
lcd&=~(1<<rw);
  8a:	91 98       	cbi	0x12, 1	; 18
lcd|=(1<<en);
  8c:	92 9a       	sbi	0x12, 2	; 18
    milliseconds can be achieved.
 */
void
_delay_loop_2(uint16_t __count)
{
	__asm__ volatile (
  8e:	2a ef       	ldi	r18, 0xFA	; 250
  90:	30 e0       	ldi	r19, 0x00	; 0
  92:	f9 01       	movw	r30, r18
  94:	31 97       	sbiw	r30, 0x01	; 1
  96:	f1 f7       	brne	.-4      	; 0x94 <ldata+0x12>
_delay_ms(1);
lcd&=~(1<<en);
  98:	92 98       	cbi	0x12, 2	; 18


lcd=(x<<4)&0xf0;
  9a:	90 e0       	ldi	r25, 0x00	; 0
  9c:	44 e0       	ldi	r20, 0x04	; 4
  9e:	88 0f       	add	r24, r24
  a0:	99 1f       	adc	r25, r25
  a2:	4a 95       	dec	r20
  a4:	e1 f7       	brne	.-8      	; 0x9e <ldata+0x1c>
  a6:	82 bb       	out	0x12, r24	; 18
lcd|=(1<<rs);
  a8:	90 9a       	sbi	0x12, 0	; 18
lcd&=~(1<<rw);
  aa:	91 98       	cbi	0x12, 1	; 18
lcd|=(1<<en);
  ac:	92 9a       	sbi	0x12, 2	; 18
  ae:	c9 01       	movw	r24, r18
  b0:	01 97       	sbiw	r24, 0x01	; 1
  b2:	f1 f7       	brne	.-4      	; 0xb0 <ldata+0x2e>
_delay_ms(1);
lcd&=~(1<<en);
  b4:	92 98       	cbi	0x12, 2	; 18
}
  b6:	08 95       	ret

000000b8 <lcmd>:
void lcmd(unsigned char x)
{
lcd=x&0xf0;
  b8:	28 2f       	mov	r18, r24
  ba:	20 7f       	andi	r18, 0xF0	; 240
  bc:	22 bb       	out	0x12, r18	; 18
lcd&=~(1<<rs);
  be:	90 98       	cbi	0x12, 0	; 18
lcd&=~(1<<rw);
  c0:	91 98       	cbi	0x12, 1	; 18
lcd|=(1<<en);
  c2:	92 9a       	sbi	0x12, 2	; 18
  c4:	2a ef       	ldi	r18, 0xFA	; 250
  c6:	30 e0       	ldi	r19, 0x00	; 0
  c8:	f9 01       	movw	r30, r18
  ca:	31 97       	sbiw	r30, 0x01	; 1
  cc:	f1 f7       	brne	.-4      	; 0xca <lcmd+0x12>
_delay_ms(1);
lcd&=~(1<<en);
  ce:	92 98       	cbi	0x12, 2	; 18


lcd =(x<<4)&0xf0;
  d0:	90 e0       	ldi	r25, 0x00	; 0
  d2:	54 e0       	ldi	r21, 0x04	; 4
  d4:	88 0f       	add	r24, r24
  d6:	99 1f       	adc	r25, r25
  d8:	5a 95       	dec	r21
  da:	e1 f7       	brne	.-8      	; 0xd4 <lcmd+0x1c>
  dc:	82 bb       	out	0x12, r24	; 18
lcd&=~(1<<rs);
  de:	90 98       	cbi	0x12, 0	; 18
lcd&=~(1<<rw);
  e0:	91 98       	cbi	0x12, 1	; 18
lcd|=(1<<en);
  e2:	92 9a       	sbi	0x12, 2	; 18
  e4:	c9 01       	movw	r24, r18
  e6:	01 97       	sbiw	r24, 0x01	; 1
  e8:	f1 f7       	brne	.-4      	; 0xe6 <lcmd+0x2e>
_delay_ms(1);
lcd&=~(1<<en);
  ea:	92 98       	cbi	0x12, 2	; 18
}
  ec:	08 95       	ret

000000ee <lstr>:
void lstr(unsigned char *p)
{
  ee:	cf 93       	push	r28
  f0:	df 93       	push	r29
  f2:	ec 01       	movw	r28, r24
  f4:	03 c0       	rjmp	.+6      	; 0xfc <lstr+0xe>
while(*p)
{
ldata(*p);
  f6:	0e 94 41 00 	call	0x82	; 0x82 <ldata>
p++;
  fa:	21 96       	adiw	r28, 0x01	; 1
_delay_ms(1);
lcd&=~(1<<en);
}
void lstr(unsigned char *p)
{
while(*p)
  fc:	88 81       	ld	r24, Y
  fe:	88 23       	and	r24, r24
 100:	d1 f7       	brne	.-12     	; 0xf6 <lstr+0x8>
{
ldata(*p);
p++;
}
}
 102:	df 91       	pop	r29
 104:	cf 91       	pop	r28
 106:	08 95       	ret

00000108 <linti>:
sprintf(a,"%d",x);
lstr(a);
}
void linti(void )
{
lcmd(0x02);
 108:	82 e0       	ldi	r24, 0x02	; 2
 10a:	0e 94 5c 00 	call	0xb8	; 0xb8 <lcmd>
lcmd(0x28);
 10e:	88 e2       	ldi	r24, 0x28	; 40
 110:	0e 94 5c 00 	call	0xb8	; 0xb8 <lcmd>
lcmd(0x06);
 114:	86 e0       	ldi	r24, 0x06	; 6
 116:	0e 94 5c 00 	call	0xb8	; 0xb8 <lcmd>
lcmd(0x0c);
 11a:	8c e0       	ldi	r24, 0x0C	; 12
 11c:	0e 94 5c 00 	call	0xb8	; 0xb8 <lcmd>
ldata('A');
 120:	81 e4       	ldi	r24, 0x41	; 65
 122:	0e 94 41 00 	call	0x82	; 0x82 <ldata>
}
 126:	08 95       	ret

00000128 <main>:
#define en 2
#include"lcd.h"

void main()
// function contain Commands to initialize the LCD
{int s[8]={0x1f,0x04,0x0e,0x15,0x0d,0x04,0x04};
 128:	ff 92       	push	r15
 12a:	0f 93       	push	r16
 12c:	1f 93       	push	r17
 12e:	df 93       	push	r29
 130:	cf 93       	push	r28
 132:	cd b7       	in	r28, 0x3d	; 61
 134:	de b7       	in	r29, 0x3e	; 62
 136:	60 97       	sbiw	r28, 0x10	; 16
 138:	0f b6       	in	r0, 0x3f	; 63
 13a:	f8 94       	cli
 13c:	de bf       	out	0x3e, r29	; 62
 13e:	0f be       	out	0x3f, r0	; 63
 140:	cd bf       	out	0x3d, r28	; 61
 142:	8e 01       	movw	r16, r28
 144:	0f 5f       	subi	r16, 0xFF	; 255
 146:	1f 4f       	sbci	r17, 0xFF	; 255
 148:	80 e1       	ldi	r24, 0x10	; 16
 14a:	f8 01       	movw	r30, r16
 14c:	11 92       	st	Z+, r1
 14e:	8a 95       	dec	r24
 150:	e9 f7       	brne	.-6      	; 0x14c <main+0x24>
 152:	8f e1       	ldi	r24, 0x1F	; 31
 154:	90 e0       	ldi	r25, 0x00	; 0
 156:	9a 83       	std	Y+2, r25	; 0x02
 158:	89 83       	std	Y+1, r24	; 0x01
 15a:	24 e0       	ldi	r18, 0x04	; 4
 15c:	30 e0       	ldi	r19, 0x00	; 0
 15e:	3c 83       	std	Y+4, r19	; 0x04
 160:	2b 83       	std	Y+3, r18	; 0x03
 162:	8e e0       	ldi	r24, 0x0E	; 14
 164:	90 e0       	ldi	r25, 0x00	; 0
 166:	9e 83       	std	Y+6, r25	; 0x06
 168:	8d 83       	std	Y+5, r24	; 0x05
 16a:	85 e1       	ldi	r24, 0x15	; 21
 16c:	90 e0       	ldi	r25, 0x00	; 0
 16e:	98 87       	std	Y+8, r25	; 0x08
 170:	8f 83       	std	Y+7, r24	; 0x07
 172:	8d e0       	ldi	r24, 0x0D	; 13
 174:	90 e0       	ldi	r25, 0x00	; 0
 176:	9a 87       	std	Y+10, r25	; 0x0a
 178:	89 87       	std	Y+9, r24	; 0x09
 17a:	3c 87       	std	Y+12, r19	; 0x0c
 17c:	2b 87       	std	Y+11, r18	; 0x0b
 17e:	3e 87       	std	Y+14, r19	; 0x0e
 180:	2d 87       	std	Y+13, r18	; 0x0d
int a;
DDRD=0xff;
 182:	8f ef       	ldi	r24, 0xFF	; 255
 184:	81 bb       	out	0x11, r24	; 17
linti();
 186:	0e 94 84 00 	call	0x108	; 0x108 <linti>
ldata('B');
 18a:	82 e4       	ldi	r24, 0x42	; 66
 18c:	0e 94 41 00 	call	0x82	; 0x82 <ldata>
 190:	60 e4       	ldi	r22, 0x40	; 64
 192:	f6 2e       	mov	r15, r22
for(a=0;a<8;a++)
{
lcmd(0x40 + a); // 0x40 is starting address of CG RAM (auto increment also)
 194:	8f 2d       	mov	r24, r15
 196:	0e 94 5c 00 	call	0xb8	; 0xb8 <lcmd>
ldata(s[a]); // write the data to CG RAM (Normal write function of LCD)
 19a:	f8 01       	movw	r30, r16
 19c:	80 81       	ld	r24, Z
 19e:	0e 94 41 00 	call	0x82	; 0x82 <ldata>
 1a2:	f3 94       	inc	r15
 1a4:	0e 5f       	subi	r16, 0xFE	; 254
 1a6:	1f 4f       	sbci	r17, 0xFF	; 255
{int s[8]={0x1f,0x04,0x0e,0x15,0x0d,0x04,0x04};
int a;
DDRD=0xff;
linti();
ldata('B');
for(a=0;a<8;a++)
 1a8:	f8 e4       	ldi	r31, 0x48	; 72
 1aa:	ff 16       	cp	r15, r31
 1ac:	99 f7       	brne	.-26     	; 0x194 <main+0x6c>
{
lcmd(0x40 + a); // 0x40 is starting address of CG RAM (auto increment also)
ldata(s[a]); // write the data to CG RAM (Normal write function of LCD)
}
ldata(0x00);
 1ae:	80 e0       	ldi	r24, 0x00	; 0
 1b0:	0e 94 41 00 	call	0x82	; 0x82 <ldata>




}
 1b4:	60 96       	adiw	r28, 0x10	; 16
 1b6:	0f b6       	in	r0, 0x3f	; 63
 1b8:	f8 94       	cli
 1ba:	de bf       	out	0x3e, r29	; 62
 1bc:	0f be       	out	0x3f, r0	; 63
 1be:	cd bf       	out	0x3d, r28	; 61
 1c0:	cf 91       	pop	r28
 1c2:	df 91       	pop	r29
 1c4:	1f 91       	pop	r17
 1c6:	0f 91       	pop	r16
 1c8:	ff 90       	pop	r15
 1ca:	08 95       	ret

000001cc <li2s>:
ldata(*p);
p++;
}
}
void li2s(unsigned int x)
{
 1cc:	0f 93       	push	r16
 1ce:	1f 93       	push	r17
 1d0:	df 93       	push	r29
 1d2:	cf 93       	push	r28
 1d4:	cd b7       	in	r28, 0x3d	; 61
 1d6:	de b7       	in	r29, 0x3e	; 62
 1d8:	27 97       	sbiw	r28, 0x07	; 7
 1da:	0f b6       	in	r0, 0x3f	; 63
 1dc:	f8 94       	cli
 1de:	de bf       	out	0x3e, r29	; 62
 1e0:	0f be       	out	0x3f, r0	; 63
 1e2:	cd bf       	out	0x3d, r28	; 61
unsigned char a[7];
sprintf(a,"%d",x);
 1e4:	00 d0       	rcall	.+0      	; 0x1e6 <li2s+0x1a>
 1e6:	00 d0       	rcall	.+0      	; 0x1e8 <li2s+0x1c>
 1e8:	00 d0       	rcall	.+0      	; 0x1ea <li2s+0x1e>
 1ea:	ed b7       	in	r30, 0x3d	; 61
 1ec:	fe b7       	in	r31, 0x3e	; 62
 1ee:	31 96       	adiw	r30, 0x01	; 1
 1f0:	8e 01       	movw	r16, r28
 1f2:	0f 5f       	subi	r16, 0xFF	; 255
 1f4:	1f 4f       	sbci	r17, 0xFF	; 255
 1f6:	ad b7       	in	r26, 0x3d	; 61
 1f8:	be b7       	in	r27, 0x3e	; 62
 1fa:	12 96       	adiw	r26, 0x02	; 2
 1fc:	1c 93       	st	X, r17
 1fe:	0e 93       	st	-X, r16
 200:	11 97       	sbiw	r26, 0x01	; 1
 202:	20 e6       	ldi	r18, 0x60	; 96
 204:	30 e0       	ldi	r19, 0x00	; 0
 206:	33 83       	std	Z+3, r19	; 0x03
 208:	22 83       	std	Z+2, r18	; 0x02
 20a:	95 83       	std	Z+5, r25	; 0x05
 20c:	84 83       	std	Z+4, r24	; 0x04
 20e:	0e 94 1f 01 	call	0x23e	; 0x23e <sprintf>
lstr(a);
 212:	8d b7       	in	r24, 0x3d	; 61
 214:	9e b7       	in	r25, 0x3e	; 62
 216:	06 96       	adiw	r24, 0x06	; 6
 218:	0f b6       	in	r0, 0x3f	; 63
 21a:	f8 94       	cli
 21c:	9e bf       	out	0x3e, r25	; 62
 21e:	0f be       	out	0x3f, r0	; 63
 220:	8d bf       	out	0x3d, r24	; 61
 222:	c8 01       	movw	r24, r16
 224:	0e 94 77 00 	call	0xee	; 0xee <lstr>
}
 228:	27 96       	adiw	r28, 0x07	; 7
 22a:	0f b6       	in	r0, 0x3f	; 63
 22c:	f8 94       	cli
 22e:	de bf       	out	0x3e, r29	; 62
 230:	0f be       	out	0x3f, r0	; 63
 232:	cd bf       	out	0x3d, r28	; 61
 234:	cf 91       	pop	r28
 236:	df 91       	pop	r29
 238:	1f 91       	pop	r17
 23a:	0f 91       	pop	r16
 23c:	08 95       	ret

0000023e <sprintf>:
 23e:	ae e0       	ldi	r26, 0x0E	; 14
 240:	b0 e0       	ldi	r27, 0x00	; 0
 242:	e5 e2       	ldi	r30, 0x25	; 37
 244:	f1 e0       	ldi	r31, 0x01	; 1
 246:	0c 94 ce 03 	jmp	0x79c	; 0x79c <__prologue_saves__+0x1c>
 24a:	0d 89       	ldd	r16, Y+21	; 0x15
 24c:	1e 89       	ldd	r17, Y+22	; 0x16
 24e:	86 e0       	ldi	r24, 0x06	; 6
 250:	8c 83       	std	Y+4, r24	; 0x04
 252:	1a 83       	std	Y+2, r17	; 0x02
 254:	09 83       	std	Y+1, r16	; 0x01
 256:	8f ef       	ldi	r24, 0xFF	; 255
 258:	9f e7       	ldi	r25, 0x7F	; 127
 25a:	9e 83       	std	Y+6, r25	; 0x06
 25c:	8d 83       	std	Y+5, r24	; 0x05
 25e:	9e 01       	movw	r18, r28
 260:	27 5e       	subi	r18, 0xE7	; 231
 262:	3f 4f       	sbci	r19, 0xFF	; 255
 264:	ce 01       	movw	r24, r28
 266:	01 96       	adiw	r24, 0x01	; 1
 268:	6f 89       	ldd	r22, Y+23	; 0x17
 26a:	78 8d       	ldd	r23, Y+24	; 0x18
 26c:	a9 01       	movw	r20, r18
 26e:	0e 94 43 01 	call	0x286	; 0x286 <vfprintf>
 272:	2f 81       	ldd	r18, Y+7	; 0x07
 274:	38 85       	ldd	r19, Y+8	; 0x08
 276:	02 0f       	add	r16, r18
 278:	13 1f       	adc	r17, r19
 27a:	f8 01       	movw	r30, r16
 27c:	10 82       	st	Z, r1
 27e:	2e 96       	adiw	r28, 0x0e	; 14
 280:	e4 e0       	ldi	r30, 0x04	; 4
 282:	0c 94 ea 03 	jmp	0x7d4	; 0x7d4 <__epilogue_restores__+0x1c>

00000286 <vfprintf>:
 286:	ab e0       	ldi	r26, 0x0B	; 11
 288:	b0 e0       	ldi	r27, 0x00	; 0
 28a:	e9 e4       	ldi	r30, 0x49	; 73
 28c:	f1 e0       	ldi	r31, 0x01	; 1
 28e:	0c 94 c0 03 	jmp	0x780	; 0x780 <__prologue_saves__>
 292:	3c 01       	movw	r6, r24
 294:	2b 01       	movw	r4, r22
 296:	5a 01       	movw	r10, r20
 298:	fc 01       	movw	r30, r24
 29a:	17 82       	std	Z+7, r1	; 0x07
 29c:	16 82       	std	Z+6, r1	; 0x06
 29e:	83 81       	ldd	r24, Z+3	; 0x03
 2a0:	81 fd       	sbrc	r24, 1
 2a2:	03 c0       	rjmp	.+6      	; 0x2aa <vfprintf+0x24>
 2a4:	6f ef       	ldi	r22, 0xFF	; 255
 2a6:	7f ef       	ldi	r23, 0xFF	; 255
 2a8:	c6 c1       	rjmp	.+908    	; 0x636 <__stack+0x1d7>
 2aa:	9a e0       	ldi	r25, 0x0A	; 10
 2ac:	89 2e       	mov	r8, r25
 2ae:	1e 01       	movw	r2, r28
 2b0:	08 94       	sec
 2b2:	21 1c       	adc	r2, r1
 2b4:	31 1c       	adc	r3, r1
 2b6:	f3 01       	movw	r30, r6
 2b8:	23 81       	ldd	r18, Z+3	; 0x03
 2ba:	f2 01       	movw	r30, r4
 2bc:	23 fd       	sbrc	r18, 3
 2be:	85 91       	lpm	r24, Z+
 2c0:	23 ff       	sbrs	r18, 3
 2c2:	81 91       	ld	r24, Z+
 2c4:	2f 01       	movw	r4, r30
 2c6:	88 23       	and	r24, r24
 2c8:	09 f4       	brne	.+2      	; 0x2cc <vfprintf+0x46>
 2ca:	b2 c1       	rjmp	.+868    	; 0x630 <__stack+0x1d1>
 2cc:	85 32       	cpi	r24, 0x25	; 37
 2ce:	39 f4       	brne	.+14     	; 0x2de <vfprintf+0x58>
 2d0:	23 fd       	sbrc	r18, 3
 2d2:	85 91       	lpm	r24, Z+
 2d4:	23 ff       	sbrs	r18, 3
 2d6:	81 91       	ld	r24, Z+
 2d8:	2f 01       	movw	r4, r30
 2da:	85 32       	cpi	r24, 0x25	; 37
 2dc:	29 f4       	brne	.+10     	; 0x2e8 <vfprintf+0x62>
 2de:	90 e0       	ldi	r25, 0x00	; 0
 2e0:	b3 01       	movw	r22, r6
 2e2:	0e 94 36 03 	call	0x66c	; 0x66c <fputc>
 2e6:	e7 cf       	rjmp	.-50     	; 0x2b6 <vfprintf+0x30>
 2e8:	98 2f       	mov	r25, r24
 2ea:	ff 24       	eor	r15, r15
 2ec:	ee 24       	eor	r14, r14
 2ee:	99 24       	eor	r9, r9
 2f0:	ff e1       	ldi	r31, 0x1F	; 31
 2f2:	ff 15       	cp	r31, r15
 2f4:	d0 f0       	brcs	.+52     	; 0x32a <vfprintf+0xa4>
 2f6:	9b 32       	cpi	r25, 0x2B	; 43
 2f8:	69 f0       	breq	.+26     	; 0x314 <vfprintf+0x8e>
 2fa:	9c 32       	cpi	r25, 0x2C	; 44
 2fc:	28 f4       	brcc	.+10     	; 0x308 <vfprintf+0x82>
 2fe:	90 32       	cpi	r25, 0x20	; 32
 300:	59 f0       	breq	.+22     	; 0x318 <vfprintf+0x92>
 302:	93 32       	cpi	r25, 0x23	; 35
 304:	91 f4       	brne	.+36     	; 0x32a <vfprintf+0xa4>
 306:	0e c0       	rjmp	.+28     	; 0x324 <vfprintf+0x9e>
 308:	9d 32       	cpi	r25, 0x2D	; 45
 30a:	49 f0       	breq	.+18     	; 0x31e <vfprintf+0x98>
 30c:	90 33       	cpi	r25, 0x30	; 48
 30e:	69 f4       	brne	.+26     	; 0x32a <vfprintf+0xa4>
 310:	41 e0       	ldi	r20, 0x01	; 1
 312:	24 c0       	rjmp	.+72     	; 0x35c <vfprintf+0xd6>
 314:	52 e0       	ldi	r21, 0x02	; 2
 316:	f5 2a       	or	r15, r21
 318:	84 e0       	ldi	r24, 0x04	; 4
 31a:	f8 2a       	or	r15, r24
 31c:	28 c0       	rjmp	.+80     	; 0x36e <vfprintf+0xe8>
 31e:	98 e0       	ldi	r25, 0x08	; 8
 320:	f9 2a       	or	r15, r25
 322:	25 c0       	rjmp	.+74     	; 0x36e <vfprintf+0xe8>
 324:	e0 e1       	ldi	r30, 0x10	; 16
 326:	fe 2a       	or	r15, r30
 328:	22 c0       	rjmp	.+68     	; 0x36e <vfprintf+0xe8>
 32a:	f7 fc       	sbrc	r15, 7
 32c:	29 c0       	rjmp	.+82     	; 0x380 <vfprintf+0xfa>
 32e:	89 2f       	mov	r24, r25
 330:	80 53       	subi	r24, 0x30	; 48
 332:	8a 30       	cpi	r24, 0x0A	; 10
 334:	70 f4       	brcc	.+28     	; 0x352 <vfprintf+0xcc>
 336:	f6 fe       	sbrs	r15, 6
 338:	05 c0       	rjmp	.+10     	; 0x344 <vfprintf+0xbe>
 33a:	98 9c       	mul	r9, r8
 33c:	90 2c       	mov	r9, r0
 33e:	11 24       	eor	r1, r1
 340:	98 0e       	add	r9, r24
 342:	15 c0       	rjmp	.+42     	; 0x36e <vfprintf+0xe8>
 344:	e8 9c       	mul	r14, r8
 346:	e0 2c       	mov	r14, r0
 348:	11 24       	eor	r1, r1
 34a:	e8 0e       	add	r14, r24
 34c:	f0 e2       	ldi	r31, 0x20	; 32
 34e:	ff 2a       	or	r15, r31
 350:	0e c0       	rjmp	.+28     	; 0x36e <vfprintf+0xe8>
 352:	9e 32       	cpi	r25, 0x2E	; 46
 354:	29 f4       	brne	.+10     	; 0x360 <vfprintf+0xda>
 356:	f6 fc       	sbrc	r15, 6
 358:	6b c1       	rjmp	.+726    	; 0x630 <__stack+0x1d1>
 35a:	40 e4       	ldi	r20, 0x40	; 64
 35c:	f4 2a       	or	r15, r20
 35e:	07 c0       	rjmp	.+14     	; 0x36e <vfprintf+0xe8>
 360:	9c 36       	cpi	r25, 0x6C	; 108
 362:	19 f4       	brne	.+6      	; 0x36a <vfprintf+0xe4>
 364:	50 e8       	ldi	r21, 0x80	; 128
 366:	f5 2a       	or	r15, r21
 368:	02 c0       	rjmp	.+4      	; 0x36e <vfprintf+0xe8>
 36a:	98 36       	cpi	r25, 0x68	; 104
 36c:	49 f4       	brne	.+18     	; 0x380 <vfprintf+0xfa>
 36e:	f2 01       	movw	r30, r4
 370:	23 fd       	sbrc	r18, 3
 372:	95 91       	lpm	r25, Z+
 374:	23 ff       	sbrs	r18, 3
 376:	91 91       	ld	r25, Z+
 378:	2f 01       	movw	r4, r30
 37a:	99 23       	and	r25, r25
 37c:	09 f0       	breq	.+2      	; 0x380 <vfprintf+0xfa>
 37e:	b8 cf       	rjmp	.-144    	; 0x2f0 <vfprintf+0x6a>
 380:	89 2f       	mov	r24, r25
 382:	85 54       	subi	r24, 0x45	; 69
 384:	83 30       	cpi	r24, 0x03	; 3
 386:	18 f0       	brcs	.+6      	; 0x38e <vfprintf+0x108>
 388:	80 52       	subi	r24, 0x20	; 32
 38a:	83 30       	cpi	r24, 0x03	; 3
 38c:	38 f4       	brcc	.+14     	; 0x39c <vfprintf+0x116>
 38e:	44 e0       	ldi	r20, 0x04	; 4
 390:	50 e0       	ldi	r21, 0x00	; 0
 392:	a4 0e       	add	r10, r20
 394:	b5 1e       	adc	r11, r21
 396:	5f e3       	ldi	r21, 0x3F	; 63
 398:	59 83       	std	Y+1, r21	; 0x01
 39a:	0f c0       	rjmp	.+30     	; 0x3ba <vfprintf+0x134>
 39c:	93 36       	cpi	r25, 0x63	; 99
 39e:	31 f0       	breq	.+12     	; 0x3ac <vfprintf+0x126>
 3a0:	93 37       	cpi	r25, 0x73	; 115
 3a2:	79 f0       	breq	.+30     	; 0x3c2 <vfprintf+0x13c>
 3a4:	93 35       	cpi	r25, 0x53	; 83
 3a6:	09 f0       	breq	.+2      	; 0x3aa <vfprintf+0x124>
 3a8:	56 c0       	rjmp	.+172    	; 0x456 <vfprintf+0x1d0>
 3aa:	20 c0       	rjmp	.+64     	; 0x3ec <vfprintf+0x166>
 3ac:	f5 01       	movw	r30, r10
 3ae:	80 81       	ld	r24, Z
 3b0:	89 83       	std	Y+1, r24	; 0x01
 3b2:	42 e0       	ldi	r20, 0x02	; 2
 3b4:	50 e0       	ldi	r21, 0x00	; 0
 3b6:	a4 0e       	add	r10, r20
 3b8:	b5 1e       	adc	r11, r21
 3ba:	61 01       	movw	r12, r2
 3bc:	01 e0       	ldi	r16, 0x01	; 1
 3be:	10 e0       	ldi	r17, 0x00	; 0
 3c0:	12 c0       	rjmp	.+36     	; 0x3e6 <vfprintf+0x160>
 3c2:	f5 01       	movw	r30, r10
 3c4:	c0 80       	ld	r12, Z
 3c6:	d1 80       	ldd	r13, Z+1	; 0x01
 3c8:	f6 fc       	sbrc	r15, 6
 3ca:	03 c0       	rjmp	.+6      	; 0x3d2 <vfprintf+0x14c>
 3cc:	6f ef       	ldi	r22, 0xFF	; 255
 3ce:	7f ef       	ldi	r23, 0xFF	; 255
 3d0:	02 c0       	rjmp	.+4      	; 0x3d6 <vfprintf+0x150>
 3d2:	69 2d       	mov	r22, r9
 3d4:	70 e0       	ldi	r23, 0x00	; 0
 3d6:	42 e0       	ldi	r20, 0x02	; 2
 3d8:	50 e0       	ldi	r21, 0x00	; 0
 3da:	a4 0e       	add	r10, r20
 3dc:	b5 1e       	adc	r11, r21
 3de:	c6 01       	movw	r24, r12
 3e0:	0e 94 2b 03 	call	0x656	; 0x656 <strnlen>
 3e4:	8c 01       	movw	r16, r24
 3e6:	5f e7       	ldi	r21, 0x7F	; 127
 3e8:	f5 22       	and	r15, r21
 3ea:	14 c0       	rjmp	.+40     	; 0x414 <vfprintf+0x18e>
 3ec:	f5 01       	movw	r30, r10
 3ee:	c0 80       	ld	r12, Z
 3f0:	d1 80       	ldd	r13, Z+1	; 0x01
 3f2:	f6 fc       	sbrc	r15, 6
 3f4:	03 c0       	rjmp	.+6      	; 0x3fc <vfprintf+0x176>
 3f6:	6f ef       	ldi	r22, 0xFF	; 255
 3f8:	7f ef       	ldi	r23, 0xFF	; 255
 3fa:	02 c0       	rjmp	.+4      	; 0x400 <vfprintf+0x17a>
 3fc:	69 2d       	mov	r22, r9
 3fe:	70 e0       	ldi	r23, 0x00	; 0
 400:	42 e0       	ldi	r20, 0x02	; 2
 402:	50 e0       	ldi	r21, 0x00	; 0
 404:	a4 0e       	add	r10, r20
 406:	b5 1e       	adc	r11, r21
 408:	c6 01       	movw	r24, r12
 40a:	0e 94 20 03 	call	0x640	; 0x640 <strnlen_P>
 40e:	8c 01       	movw	r16, r24
 410:	50 e8       	ldi	r21, 0x80	; 128
 412:	f5 2a       	or	r15, r21
 414:	f3 fe       	sbrs	r15, 3
 416:	07 c0       	rjmp	.+14     	; 0x426 <vfprintf+0x1a0>
 418:	1a c0       	rjmp	.+52     	; 0x44e <vfprintf+0x1c8>
 41a:	80 e2       	ldi	r24, 0x20	; 32
 41c:	90 e0       	ldi	r25, 0x00	; 0
 41e:	b3 01       	movw	r22, r6
 420:	0e 94 36 03 	call	0x66c	; 0x66c <fputc>
 424:	ea 94       	dec	r14
 426:	8e 2d       	mov	r24, r14
 428:	90 e0       	ldi	r25, 0x00	; 0
 42a:	08 17       	cp	r16, r24
 42c:	19 07       	cpc	r17, r25
 42e:	a8 f3       	brcs	.-22     	; 0x41a <vfprintf+0x194>
 430:	0e c0       	rjmp	.+28     	; 0x44e <vfprintf+0x1c8>
 432:	f6 01       	movw	r30, r12
 434:	f7 fc       	sbrc	r15, 7
 436:	85 91       	lpm	r24, Z+
 438:	f7 fe       	sbrs	r15, 7
 43a:	81 91       	ld	r24, Z+
 43c:	6f 01       	movw	r12, r30
 43e:	90 e0       	ldi	r25, 0x00	; 0
 440:	b3 01       	movw	r22, r6
 442:	0e 94 36 03 	call	0x66c	; 0x66c <fputc>
 446:	e1 10       	cpse	r14, r1
 448:	ea 94       	dec	r14
 44a:	01 50       	subi	r16, 0x01	; 1
 44c:	10 40       	sbci	r17, 0x00	; 0
 44e:	01 15       	cp	r16, r1
 450:	11 05       	cpc	r17, r1
 452:	79 f7       	brne	.-34     	; 0x432 <vfprintf+0x1ac>
 454:	ea c0       	rjmp	.+468    	; 0x62a <__stack+0x1cb>
 456:	94 36       	cpi	r25, 0x64	; 100
 458:	11 f0       	breq	.+4      	; 0x45e <vfprintf+0x1d8>
 45a:	99 36       	cpi	r25, 0x69	; 105
 45c:	69 f5       	brne	.+90     	; 0x4b8 <__stack+0x59>
 45e:	f7 fe       	sbrs	r15, 7
 460:	08 c0       	rjmp	.+16     	; 0x472 <__stack+0x13>
 462:	f5 01       	movw	r30, r10
 464:	20 81       	ld	r18, Z
 466:	31 81       	ldd	r19, Z+1	; 0x01
 468:	42 81       	ldd	r20, Z+2	; 0x02
 46a:	53 81       	ldd	r21, Z+3	; 0x03
 46c:	84 e0       	ldi	r24, 0x04	; 4
 46e:	90 e0       	ldi	r25, 0x00	; 0
 470:	0a c0       	rjmp	.+20     	; 0x486 <__stack+0x27>
 472:	f5 01       	movw	r30, r10
 474:	80 81       	ld	r24, Z
 476:	91 81       	ldd	r25, Z+1	; 0x01
 478:	9c 01       	movw	r18, r24
 47a:	44 27       	eor	r20, r20
 47c:	37 fd       	sbrc	r19, 7
 47e:	40 95       	com	r20
 480:	54 2f       	mov	r21, r20
 482:	82 e0       	ldi	r24, 0x02	; 2
 484:	90 e0       	ldi	r25, 0x00	; 0
 486:	a8 0e       	add	r10, r24
 488:	b9 1e       	adc	r11, r25
 48a:	9f e6       	ldi	r25, 0x6F	; 111
 48c:	f9 22       	and	r15, r25
 48e:	57 ff       	sbrs	r21, 7
 490:	09 c0       	rjmp	.+18     	; 0x4a4 <__stack+0x45>
 492:	50 95       	com	r21
 494:	40 95       	com	r20
 496:	30 95       	com	r19
 498:	21 95       	neg	r18
 49a:	3f 4f       	sbci	r19, 0xFF	; 255
 49c:	4f 4f       	sbci	r20, 0xFF	; 255
 49e:	5f 4f       	sbci	r21, 0xFF	; 255
 4a0:	e0 e8       	ldi	r30, 0x80	; 128
 4a2:	fe 2a       	or	r15, r30
 4a4:	ca 01       	movw	r24, r20
 4a6:	b9 01       	movw	r22, r18
 4a8:	a1 01       	movw	r20, r2
 4aa:	2a e0       	ldi	r18, 0x0A	; 10
 4ac:	30 e0       	ldi	r19, 0x00	; 0
 4ae:	0e 94 62 03 	call	0x6c4	; 0x6c4 <__ultoa_invert>
 4b2:	d8 2e       	mov	r13, r24
 4b4:	d2 18       	sub	r13, r2
 4b6:	40 c0       	rjmp	.+128    	; 0x538 <__stack+0xd9>
 4b8:	95 37       	cpi	r25, 0x75	; 117
 4ba:	29 f4       	brne	.+10     	; 0x4c6 <__stack+0x67>
 4bc:	1f 2d       	mov	r17, r15
 4be:	1f 7e       	andi	r17, 0xEF	; 239
 4c0:	2a e0       	ldi	r18, 0x0A	; 10
 4c2:	30 e0       	ldi	r19, 0x00	; 0
 4c4:	1d c0       	rjmp	.+58     	; 0x500 <__stack+0xa1>
 4c6:	1f 2d       	mov	r17, r15
 4c8:	19 7f       	andi	r17, 0xF9	; 249
 4ca:	9f 36       	cpi	r25, 0x6F	; 111
 4cc:	61 f0       	breq	.+24     	; 0x4e6 <__stack+0x87>
 4ce:	90 37       	cpi	r25, 0x70	; 112
 4d0:	20 f4       	brcc	.+8      	; 0x4da <__stack+0x7b>
 4d2:	98 35       	cpi	r25, 0x58	; 88
 4d4:	09 f0       	breq	.+2      	; 0x4d8 <__stack+0x79>
 4d6:	ac c0       	rjmp	.+344    	; 0x630 <__stack+0x1d1>
 4d8:	0f c0       	rjmp	.+30     	; 0x4f8 <__stack+0x99>
 4da:	90 37       	cpi	r25, 0x70	; 112
 4dc:	39 f0       	breq	.+14     	; 0x4ec <__stack+0x8d>
 4de:	98 37       	cpi	r25, 0x78	; 120
 4e0:	09 f0       	breq	.+2      	; 0x4e4 <__stack+0x85>
 4e2:	a6 c0       	rjmp	.+332    	; 0x630 <__stack+0x1d1>
 4e4:	04 c0       	rjmp	.+8      	; 0x4ee <__stack+0x8f>
 4e6:	28 e0       	ldi	r18, 0x08	; 8
 4e8:	30 e0       	ldi	r19, 0x00	; 0
 4ea:	0a c0       	rjmp	.+20     	; 0x500 <__stack+0xa1>
 4ec:	10 61       	ori	r17, 0x10	; 16
 4ee:	14 fd       	sbrc	r17, 4
 4f0:	14 60       	ori	r17, 0x04	; 4
 4f2:	20 e1       	ldi	r18, 0x10	; 16
 4f4:	30 e0       	ldi	r19, 0x00	; 0
 4f6:	04 c0       	rjmp	.+8      	; 0x500 <__stack+0xa1>
 4f8:	14 fd       	sbrc	r17, 4
 4fa:	16 60       	ori	r17, 0x06	; 6
 4fc:	20 e1       	ldi	r18, 0x10	; 16
 4fe:	32 e0       	ldi	r19, 0x02	; 2
 500:	17 ff       	sbrs	r17, 7
 502:	08 c0       	rjmp	.+16     	; 0x514 <__stack+0xb5>
 504:	f5 01       	movw	r30, r10
 506:	60 81       	ld	r22, Z
 508:	71 81       	ldd	r23, Z+1	; 0x01
 50a:	82 81       	ldd	r24, Z+2	; 0x02
 50c:	93 81       	ldd	r25, Z+3	; 0x03
 50e:	44 e0       	ldi	r20, 0x04	; 4
 510:	50 e0       	ldi	r21, 0x00	; 0
 512:	08 c0       	rjmp	.+16     	; 0x524 <__stack+0xc5>
 514:	f5 01       	movw	r30, r10
 516:	80 81       	ld	r24, Z
 518:	91 81       	ldd	r25, Z+1	; 0x01
 51a:	bc 01       	movw	r22, r24
 51c:	80 e0       	ldi	r24, 0x00	; 0
 51e:	90 e0       	ldi	r25, 0x00	; 0
 520:	42 e0       	ldi	r20, 0x02	; 2
 522:	50 e0       	ldi	r21, 0x00	; 0
 524:	a4 0e       	add	r10, r20
 526:	b5 1e       	adc	r11, r21
 528:	a1 01       	movw	r20, r2
 52a:	0e 94 62 03 	call	0x6c4	; 0x6c4 <__ultoa_invert>
 52e:	d8 2e       	mov	r13, r24
 530:	d2 18       	sub	r13, r2
 532:	8f e7       	ldi	r24, 0x7F	; 127
 534:	f8 2e       	mov	r15, r24
 536:	f1 22       	and	r15, r17
 538:	f6 fe       	sbrs	r15, 6
 53a:	0b c0       	rjmp	.+22     	; 0x552 <__stack+0xf3>
 53c:	5e ef       	ldi	r21, 0xFE	; 254
 53e:	f5 22       	and	r15, r21
 540:	d9 14       	cp	r13, r9
 542:	38 f4       	brcc	.+14     	; 0x552 <__stack+0xf3>
 544:	f4 fe       	sbrs	r15, 4
 546:	07 c0       	rjmp	.+14     	; 0x556 <__stack+0xf7>
 548:	f2 fc       	sbrc	r15, 2
 54a:	05 c0       	rjmp	.+10     	; 0x556 <__stack+0xf7>
 54c:	8f ee       	ldi	r24, 0xEF	; 239
 54e:	f8 22       	and	r15, r24
 550:	02 c0       	rjmp	.+4      	; 0x556 <__stack+0xf7>
 552:	1d 2d       	mov	r17, r13
 554:	01 c0       	rjmp	.+2      	; 0x558 <__stack+0xf9>
 556:	19 2d       	mov	r17, r9
 558:	f4 fe       	sbrs	r15, 4
 55a:	0d c0       	rjmp	.+26     	; 0x576 <__stack+0x117>
 55c:	fe 01       	movw	r30, r28
 55e:	ed 0d       	add	r30, r13
 560:	f1 1d       	adc	r31, r1
 562:	80 81       	ld	r24, Z
 564:	80 33       	cpi	r24, 0x30	; 48
 566:	19 f4       	brne	.+6      	; 0x56e <__stack+0x10f>
 568:	99 ee       	ldi	r25, 0xE9	; 233
 56a:	f9 22       	and	r15, r25
 56c:	08 c0       	rjmp	.+16     	; 0x57e <__stack+0x11f>
 56e:	1f 5f       	subi	r17, 0xFF	; 255
 570:	f2 fe       	sbrs	r15, 2
 572:	05 c0       	rjmp	.+10     	; 0x57e <__stack+0x11f>
 574:	03 c0       	rjmp	.+6      	; 0x57c <__stack+0x11d>
 576:	8f 2d       	mov	r24, r15
 578:	86 78       	andi	r24, 0x86	; 134
 57a:	09 f0       	breq	.+2      	; 0x57e <__stack+0x11f>
 57c:	1f 5f       	subi	r17, 0xFF	; 255
 57e:	0f 2d       	mov	r16, r15
 580:	f3 fc       	sbrc	r15, 3
 582:	14 c0       	rjmp	.+40     	; 0x5ac <__stack+0x14d>
 584:	f0 fe       	sbrs	r15, 0
 586:	0f c0       	rjmp	.+30     	; 0x5a6 <__stack+0x147>
 588:	1e 15       	cp	r17, r14
 58a:	10 f0       	brcs	.+4      	; 0x590 <__stack+0x131>
 58c:	9d 2c       	mov	r9, r13
 58e:	0b c0       	rjmp	.+22     	; 0x5a6 <__stack+0x147>
 590:	9d 2c       	mov	r9, r13
 592:	9e 0c       	add	r9, r14
 594:	91 1a       	sub	r9, r17
 596:	1e 2d       	mov	r17, r14
 598:	06 c0       	rjmp	.+12     	; 0x5a6 <__stack+0x147>
 59a:	80 e2       	ldi	r24, 0x20	; 32
 59c:	90 e0       	ldi	r25, 0x00	; 0
 59e:	b3 01       	movw	r22, r6
 5a0:	0e 94 36 03 	call	0x66c	; 0x66c <fputc>
 5a4:	1f 5f       	subi	r17, 0xFF	; 255
 5a6:	1e 15       	cp	r17, r14
 5a8:	c0 f3       	brcs	.-16     	; 0x59a <__stack+0x13b>
 5aa:	04 c0       	rjmp	.+8      	; 0x5b4 <__stack+0x155>
 5ac:	1e 15       	cp	r17, r14
 5ae:	10 f4       	brcc	.+4      	; 0x5b4 <__stack+0x155>
 5b0:	e1 1a       	sub	r14, r17
 5b2:	01 c0       	rjmp	.+2      	; 0x5b6 <__stack+0x157>
 5b4:	ee 24       	eor	r14, r14
 5b6:	04 ff       	sbrs	r16, 4
 5b8:	0f c0       	rjmp	.+30     	; 0x5d8 <__stack+0x179>
 5ba:	80 e3       	ldi	r24, 0x30	; 48
 5bc:	90 e0       	ldi	r25, 0x00	; 0
 5be:	b3 01       	movw	r22, r6
 5c0:	0e 94 36 03 	call	0x66c	; 0x66c <fputc>
 5c4:	02 ff       	sbrs	r16, 2
 5c6:	1d c0       	rjmp	.+58     	; 0x602 <__stack+0x1a3>
 5c8:	01 fd       	sbrc	r16, 1
 5ca:	03 c0       	rjmp	.+6      	; 0x5d2 <__stack+0x173>
 5cc:	88 e7       	ldi	r24, 0x78	; 120
 5ce:	90 e0       	ldi	r25, 0x00	; 0
 5d0:	0e c0       	rjmp	.+28     	; 0x5ee <__stack+0x18f>
 5d2:	88 e5       	ldi	r24, 0x58	; 88
 5d4:	90 e0       	ldi	r25, 0x00	; 0
 5d6:	0b c0       	rjmp	.+22     	; 0x5ee <__stack+0x18f>
 5d8:	80 2f       	mov	r24, r16
 5da:	86 78       	andi	r24, 0x86	; 134
 5dc:	91 f0       	breq	.+36     	; 0x602 <__stack+0x1a3>
 5de:	01 ff       	sbrs	r16, 1
 5e0:	02 c0       	rjmp	.+4      	; 0x5e6 <__stack+0x187>
 5e2:	8b e2       	ldi	r24, 0x2B	; 43
 5e4:	01 c0       	rjmp	.+2      	; 0x5e8 <__stack+0x189>
 5e6:	80 e2       	ldi	r24, 0x20	; 32
 5e8:	f7 fc       	sbrc	r15, 7
 5ea:	8d e2       	ldi	r24, 0x2D	; 45
 5ec:	90 e0       	ldi	r25, 0x00	; 0
 5ee:	b3 01       	movw	r22, r6
 5f0:	0e 94 36 03 	call	0x66c	; 0x66c <fputc>
 5f4:	06 c0       	rjmp	.+12     	; 0x602 <__stack+0x1a3>
 5f6:	80 e3       	ldi	r24, 0x30	; 48
 5f8:	90 e0       	ldi	r25, 0x00	; 0
 5fa:	b3 01       	movw	r22, r6
 5fc:	0e 94 36 03 	call	0x66c	; 0x66c <fputc>
 600:	9a 94       	dec	r9
 602:	d9 14       	cp	r13, r9
 604:	c0 f3       	brcs	.-16     	; 0x5f6 <__stack+0x197>
 606:	da 94       	dec	r13
 608:	f1 01       	movw	r30, r2
 60a:	ed 0d       	add	r30, r13
 60c:	f1 1d       	adc	r31, r1
 60e:	80 81       	ld	r24, Z
 610:	90 e0       	ldi	r25, 0x00	; 0
 612:	b3 01       	movw	r22, r6
 614:	0e 94 36 03 	call	0x66c	; 0x66c <fputc>
 618:	dd 20       	and	r13, r13
 61a:	a9 f7       	brne	.-22     	; 0x606 <__stack+0x1a7>
 61c:	06 c0       	rjmp	.+12     	; 0x62a <__stack+0x1cb>
 61e:	80 e2       	ldi	r24, 0x20	; 32
 620:	90 e0       	ldi	r25, 0x00	; 0
 622:	b3 01       	movw	r22, r6
 624:	0e 94 36 03 	call	0x66c	; 0x66c <fputc>
 628:	ea 94       	dec	r14
 62a:	ee 20       	and	r14, r14
 62c:	c1 f7       	brne	.-16     	; 0x61e <__stack+0x1bf>
 62e:	43 ce       	rjmp	.-890    	; 0x2b6 <vfprintf+0x30>
 630:	f3 01       	movw	r30, r6
 632:	66 81       	ldd	r22, Z+6	; 0x06
 634:	77 81       	ldd	r23, Z+7	; 0x07
 636:	cb 01       	movw	r24, r22
 638:	2b 96       	adiw	r28, 0x0b	; 11
 63a:	e2 e1       	ldi	r30, 0x12	; 18
 63c:	0c 94 dc 03 	jmp	0x7b8	; 0x7b8 <__epilogue_restores__>

00000640 <strnlen_P>:
 640:	fc 01       	movw	r30, r24
 642:	05 90       	lpm	r0, Z+
 644:	61 50       	subi	r22, 0x01	; 1
 646:	70 40       	sbci	r23, 0x00	; 0
 648:	01 10       	cpse	r0, r1
 64a:	d8 f7       	brcc	.-10     	; 0x642 <strnlen_P+0x2>
 64c:	80 95       	com	r24
 64e:	90 95       	com	r25
 650:	8e 0f       	add	r24, r30
 652:	9f 1f       	adc	r25, r31
 654:	08 95       	ret

00000656 <strnlen>:
 656:	fc 01       	movw	r30, r24
 658:	61 50       	subi	r22, 0x01	; 1
 65a:	70 40       	sbci	r23, 0x00	; 0
 65c:	01 90       	ld	r0, Z+
 65e:	01 10       	cpse	r0, r1
 660:	d8 f7       	brcc	.-10     	; 0x658 <strnlen+0x2>
 662:	80 95       	com	r24
 664:	90 95       	com	r25
 666:	8e 0f       	add	r24, r30
 668:	9f 1f       	adc	r25, r31
 66a:	08 95       	ret

0000066c <fputc>:
 66c:	0f 93       	push	r16
 66e:	1f 93       	push	r17
 670:	cf 93       	push	r28
 672:	df 93       	push	r29
 674:	8c 01       	movw	r16, r24
 676:	eb 01       	movw	r28, r22
 678:	8b 81       	ldd	r24, Y+3	; 0x03
 67a:	81 ff       	sbrs	r24, 1
 67c:	1b c0       	rjmp	.+54     	; 0x6b4 <fputc+0x48>
 67e:	82 ff       	sbrs	r24, 2
 680:	0d c0       	rjmp	.+26     	; 0x69c <fputc+0x30>
 682:	2e 81       	ldd	r18, Y+6	; 0x06
 684:	3f 81       	ldd	r19, Y+7	; 0x07
 686:	8c 81       	ldd	r24, Y+4	; 0x04
 688:	9d 81       	ldd	r25, Y+5	; 0x05
 68a:	28 17       	cp	r18, r24
 68c:	39 07       	cpc	r19, r25
 68e:	64 f4       	brge	.+24     	; 0x6a8 <fputc+0x3c>
 690:	e8 81       	ld	r30, Y
 692:	f9 81       	ldd	r31, Y+1	; 0x01
 694:	01 93       	st	Z+, r16
 696:	f9 83       	std	Y+1, r31	; 0x01
 698:	e8 83       	st	Y, r30
 69a:	06 c0       	rjmp	.+12     	; 0x6a8 <fputc+0x3c>
 69c:	e8 85       	ldd	r30, Y+8	; 0x08
 69e:	f9 85       	ldd	r31, Y+9	; 0x09
 6a0:	80 2f       	mov	r24, r16
 6a2:	09 95       	icall
 6a4:	89 2b       	or	r24, r25
 6a6:	31 f4       	brne	.+12     	; 0x6b4 <fputc+0x48>
 6a8:	8e 81       	ldd	r24, Y+6	; 0x06
 6aa:	9f 81       	ldd	r25, Y+7	; 0x07
 6ac:	01 96       	adiw	r24, 0x01	; 1
 6ae:	9f 83       	std	Y+7, r25	; 0x07
 6b0:	8e 83       	std	Y+6, r24	; 0x06
 6b2:	02 c0       	rjmp	.+4      	; 0x6b8 <fputc+0x4c>
 6b4:	0f ef       	ldi	r16, 0xFF	; 255
 6b6:	1f ef       	ldi	r17, 0xFF	; 255
 6b8:	c8 01       	movw	r24, r16
 6ba:	df 91       	pop	r29
 6bc:	cf 91       	pop	r28
 6be:	1f 91       	pop	r17
 6c0:	0f 91       	pop	r16
 6c2:	08 95       	ret

000006c4 <__ultoa_invert>:
 6c4:	fa 01       	movw	r30, r20
 6c6:	aa 27       	eor	r26, r26
 6c8:	28 30       	cpi	r18, 0x08	; 8
 6ca:	51 f1       	breq	.+84     	; 0x720 <__ultoa_invert+0x5c>
 6cc:	20 31       	cpi	r18, 0x10	; 16
 6ce:	81 f1       	breq	.+96     	; 0x730 <__ultoa_invert+0x6c>
 6d0:	e8 94       	clt
 6d2:	6f 93       	push	r22
 6d4:	6e 7f       	andi	r22, 0xFE	; 254
 6d6:	6e 5f       	subi	r22, 0xFE	; 254
 6d8:	7f 4f       	sbci	r23, 0xFF	; 255
 6da:	8f 4f       	sbci	r24, 0xFF	; 255
 6dc:	9f 4f       	sbci	r25, 0xFF	; 255
 6de:	af 4f       	sbci	r26, 0xFF	; 255
 6e0:	b1 e0       	ldi	r27, 0x01	; 1
 6e2:	3e d0       	rcall	.+124    	; 0x760 <__ultoa_invert+0x9c>
 6e4:	b4 e0       	ldi	r27, 0x04	; 4
 6e6:	3c d0       	rcall	.+120    	; 0x760 <__ultoa_invert+0x9c>
 6e8:	67 0f       	add	r22, r23
 6ea:	78 1f       	adc	r23, r24
 6ec:	89 1f       	adc	r24, r25
 6ee:	9a 1f       	adc	r25, r26
 6f0:	a1 1d       	adc	r26, r1
 6f2:	68 0f       	add	r22, r24
 6f4:	79 1f       	adc	r23, r25
 6f6:	8a 1f       	adc	r24, r26
 6f8:	91 1d       	adc	r25, r1
 6fa:	a1 1d       	adc	r26, r1
 6fc:	6a 0f       	add	r22, r26
 6fe:	71 1d       	adc	r23, r1
 700:	81 1d       	adc	r24, r1
 702:	91 1d       	adc	r25, r1
 704:	a1 1d       	adc	r26, r1
 706:	20 d0       	rcall	.+64     	; 0x748 <__ultoa_invert+0x84>
 708:	09 f4       	brne	.+2      	; 0x70c <__ultoa_invert+0x48>
 70a:	68 94       	set
 70c:	3f 91       	pop	r19
 70e:	2a e0       	ldi	r18, 0x0A	; 10
 710:	26 9f       	mul	r18, r22
 712:	11 24       	eor	r1, r1
 714:	30 19       	sub	r19, r0
 716:	30 5d       	subi	r19, 0xD0	; 208
 718:	31 93       	st	Z+, r19
 71a:	de f6       	brtc	.-74     	; 0x6d2 <__ultoa_invert+0xe>
 71c:	cf 01       	movw	r24, r30
 71e:	08 95       	ret
 720:	46 2f       	mov	r20, r22
 722:	47 70       	andi	r20, 0x07	; 7
 724:	40 5d       	subi	r20, 0xD0	; 208
 726:	41 93       	st	Z+, r20
 728:	b3 e0       	ldi	r27, 0x03	; 3
 72a:	0f d0       	rcall	.+30     	; 0x74a <__ultoa_invert+0x86>
 72c:	c9 f7       	brne	.-14     	; 0x720 <__ultoa_invert+0x5c>
 72e:	f6 cf       	rjmp	.-20     	; 0x71c <__ultoa_invert+0x58>
 730:	46 2f       	mov	r20, r22
 732:	4f 70       	andi	r20, 0x0F	; 15
 734:	40 5d       	subi	r20, 0xD0	; 208
 736:	4a 33       	cpi	r20, 0x3A	; 58
 738:	18 f0       	brcs	.+6      	; 0x740 <__ultoa_invert+0x7c>
 73a:	49 5d       	subi	r20, 0xD9	; 217
 73c:	31 fd       	sbrc	r19, 1
 73e:	40 52       	subi	r20, 0x20	; 32
 740:	41 93       	st	Z+, r20
 742:	02 d0       	rcall	.+4      	; 0x748 <__ultoa_invert+0x84>
 744:	a9 f7       	brne	.-22     	; 0x730 <__ultoa_invert+0x6c>
 746:	ea cf       	rjmp	.-44     	; 0x71c <__ultoa_invert+0x58>
 748:	b4 e0       	ldi	r27, 0x04	; 4
 74a:	a6 95       	lsr	r26
 74c:	97 95       	ror	r25
 74e:	87 95       	ror	r24
 750:	77 95       	ror	r23
 752:	67 95       	ror	r22
 754:	ba 95       	dec	r27
 756:	c9 f7       	brne	.-14     	; 0x74a <__ultoa_invert+0x86>
 758:	00 97       	sbiw	r24, 0x00	; 0
 75a:	61 05       	cpc	r22, r1
 75c:	71 05       	cpc	r23, r1
 75e:	08 95       	ret
 760:	9b 01       	movw	r18, r22
 762:	ac 01       	movw	r20, r24
 764:	0a 2e       	mov	r0, r26
 766:	06 94       	lsr	r0
 768:	57 95       	ror	r21
 76a:	47 95       	ror	r20
 76c:	37 95       	ror	r19
 76e:	27 95       	ror	r18
 770:	ba 95       	dec	r27
 772:	c9 f7       	brne	.-14     	; 0x766 <__ultoa_invert+0xa2>
 774:	62 0f       	add	r22, r18
 776:	73 1f       	adc	r23, r19
 778:	84 1f       	adc	r24, r20
 77a:	95 1f       	adc	r25, r21
 77c:	a0 1d       	adc	r26, r0
 77e:	08 95       	ret

00000780 <__prologue_saves__>:
 780:	2f 92       	push	r2
 782:	3f 92       	push	r3
 784:	4f 92       	push	r4
 786:	5f 92       	push	r5
 788:	6f 92       	push	r6
 78a:	7f 92       	push	r7
 78c:	8f 92       	push	r8
 78e:	9f 92       	push	r9
 790:	af 92       	push	r10
 792:	bf 92       	push	r11
 794:	cf 92       	push	r12
 796:	df 92       	push	r13
 798:	ef 92       	push	r14
 79a:	ff 92       	push	r15
 79c:	0f 93       	push	r16
 79e:	1f 93       	push	r17
 7a0:	cf 93       	push	r28
 7a2:	df 93       	push	r29
 7a4:	cd b7       	in	r28, 0x3d	; 61
 7a6:	de b7       	in	r29, 0x3e	; 62
 7a8:	ca 1b       	sub	r28, r26
 7aa:	db 0b       	sbc	r29, r27
 7ac:	0f b6       	in	r0, 0x3f	; 63
 7ae:	f8 94       	cli
 7b0:	de bf       	out	0x3e, r29	; 62
 7b2:	0f be       	out	0x3f, r0	; 63
 7b4:	cd bf       	out	0x3d, r28	; 61
 7b6:	09 94       	ijmp

000007b8 <__epilogue_restores__>:
 7b8:	2a 88       	ldd	r2, Y+18	; 0x12
 7ba:	39 88       	ldd	r3, Y+17	; 0x11
 7bc:	48 88       	ldd	r4, Y+16	; 0x10
 7be:	5f 84       	ldd	r5, Y+15	; 0x0f
 7c0:	6e 84       	ldd	r6, Y+14	; 0x0e
 7c2:	7d 84       	ldd	r7, Y+13	; 0x0d
 7c4:	8c 84       	ldd	r8, Y+12	; 0x0c
 7c6:	9b 84       	ldd	r9, Y+11	; 0x0b
 7c8:	aa 84       	ldd	r10, Y+10	; 0x0a
 7ca:	b9 84       	ldd	r11, Y+9	; 0x09
 7cc:	c8 84       	ldd	r12, Y+8	; 0x08
 7ce:	df 80       	ldd	r13, Y+7	; 0x07
 7d0:	ee 80       	ldd	r14, Y+6	; 0x06
 7d2:	fd 80       	ldd	r15, Y+5	; 0x05
 7d4:	0c 81       	ldd	r16, Y+4	; 0x04
 7d6:	1b 81       	ldd	r17, Y+3	; 0x03
 7d8:	aa 81       	ldd	r26, Y+2	; 0x02
 7da:	b9 81       	ldd	r27, Y+1	; 0x01
 7dc:	ce 0f       	add	r28, r30
 7de:	d1 1d       	adc	r29, r1
 7e0:	0f b6       	in	r0, 0x3f	; 63
 7e2:	f8 94       	cli
 7e4:	de bf       	out	0x3e, r29	; 62
 7e6:	0f be       	out	0x3f, r0	; 63
 7e8:	cd bf       	out	0x3d, r28	; 61
 7ea:	ed 01       	movw	r28, r26
 7ec:	08 95       	ret

000007ee <_exit>:
 7ee:	f8 94       	cli

000007f0 <__stop_program>:
 7f0:	ff cf       	rjmp	.-2      	; 0x7f0 <__stop_program>
