
led.elf:     file format elf32-avr

Sections:
Idx Name          Size      VMA       LMA       File off  Algn
  0 .text         000001cc  00000000  00000000  00000054  2**1
                  CONTENTS, ALLOC, LOAD, READONLY, CODE
  1 .debug_aranges 00000020  00000000  00000000  00000220  2**0
                  CONTENTS, READONLY, DEBUGGING
  2 .debug_pubnames 0000001b  00000000  00000000  00000240  2**0
                  CONTENTS, READONLY, DEBUGGING
  3 .debug_info   000000bb  00000000  00000000  0000025b  2**0
                  CONTENTS, READONLY, DEBUGGING
  4 .debug_abbrev 00000069  00000000  00000000  00000316  2**0
                  CONTENTS, READONLY, DEBUGGING
  5 .debug_line   00000092  00000000  00000000  0000037f  2**0
                  CONTENTS, READONLY, DEBUGGING
  6 .debug_frame  00000020  00000000  00000000  00000414  2**2
                  CONTENTS, READONLY, DEBUGGING
  7 .debug_str    00000096  00000000  00000000  00000434  2**0
                  CONTENTS, READONLY, DEBUGGING

Disassembly of section .text:

00000000 <__vectors>:
   0:	12 c0       	rjmp	.+36     	; 0x26 <__ctors_end>
   2:	19 c0       	rjmp	.+50     	; 0x36 <__bad_interrupt>
   4:	18 c0       	rjmp	.+48     	; 0x36 <__bad_interrupt>
   6:	17 c0       	rjmp	.+46     	; 0x36 <__bad_interrupt>
   8:	16 c0       	rjmp	.+44     	; 0x36 <__bad_interrupt>
   a:	15 c0       	rjmp	.+42     	; 0x36 <__bad_interrupt>
   c:	14 c0       	rjmp	.+40     	; 0x36 <__bad_interrupt>
   e:	13 c0       	rjmp	.+38     	; 0x36 <__bad_interrupt>
  10:	12 c0       	rjmp	.+36     	; 0x36 <__bad_interrupt>
  12:	11 c0       	rjmp	.+34     	; 0x36 <__bad_interrupt>
  14:	10 c0       	rjmp	.+32     	; 0x36 <__bad_interrupt>
  16:	0f c0       	rjmp	.+30     	; 0x36 <__bad_interrupt>
  18:	0e c0       	rjmp	.+28     	; 0x36 <__bad_interrupt>
  1a:	0d c0       	rjmp	.+26     	; 0x36 <__bad_interrupt>
  1c:	0c c0       	rjmp	.+24     	; 0x36 <__bad_interrupt>
  1e:	0b c0       	rjmp	.+22     	; 0x36 <__bad_interrupt>
  20:	0a c0       	rjmp	.+20     	; 0x36 <__bad_interrupt>
  22:	09 c0       	rjmp	.+18     	; 0x36 <__bad_interrupt>
  24:	08 c0       	rjmp	.+16     	; 0x36 <__bad_interrupt>

00000026 <__ctors_end>:
  26:	11 24       	eor	r1, r1
  28:	1f be       	out	0x3f, r1	; 63
  2a:	cf e5       	ldi	r28, 0x5F	; 95
  2c:	d4 e0       	ldi	r29, 0x04	; 4
  2e:	de bf       	out	0x3e, r29	; 62
  30:	cd bf       	out	0x3d, r28	; 61
  32:	02 d0       	rcall	.+4      	; 0x38 <main>
  34:	c9 c0       	rjmp	.+402    	; 0x1c8 <_exit>

00000036 <__bad_interrupt>:
  36:	e4 cf       	rjmp	.-56     	; 0x0 <__vectors>

00000038 <main>:
#include<avr/io.h>
#include<util/delay.h>
void main()
{ int i,j;
  38:	0f 93       	push	r16
  3a:	1f 93       	push	r17
  3c:	df 93       	push	r29
  3e:	cf 93       	push	r28
  40:	cd b7       	in	r28, 0x3d	; 61
  42:	de b7       	in	r29, 0x3e	; 62
  44:	c0 58       	subi	r28, 0x80	; 128
  46:	d0 40       	sbci	r29, 0x00	; 0
  48:	0f b6       	in	r0, 0x3f	; 63
  4a:	f8 94       	cli
  4c:	de bf       	out	0x3e, r29	; 62
  4e:	0f be       	out	0x3f, r0	; 63
  50:	cd bf       	out	0x3d, r28	; 61
DDRB=0XFF;///row
  52:	8f ef       	ldi	r24, 0xFF	; 255
  54:	87 bb       	out	0x17, r24	; 23
DDRC=0XFF;///collum
  56:	84 bb       	out	0x14, r24	; 20
					  0,1,0,0,0,0,0,1 /
					  0,1,0,0,0,0,0,1 /
			          0,1,0,0,0,0,0,1 /
					  0,1,0,0,0,0,0,1 /
					  0,1,0,0,0,0,0,1 /
					  1,1,1,1,1,1,1,0};
  58:	8e 01       	movw	r16, r28
  5a:	0f 5f       	subi	r16, 0xFF	; 255
  5c:	1f 4f       	sbci	r17, 0xFF	; 255
  5e:	80 e8       	ldi	r24, 0x80	; 128
  60:	f8 01       	movw	r30, r16
  62:	11 92       	st	Z+, r1
  64:	8a 95       	dec	r24
  66:	e9 f7       	brne	.-6      	; 0x62 <__SREG__+0x23>
  68:	21 e0       	ldi	r18, 0x01	; 1
  6a:	30 e0       	ldi	r19, 0x00	; 0
  6c:	3a 83       	std	Y+2, r19	; 0x02
  6e:	29 83       	std	Y+1, r18	; 0x01
  70:	3c 83       	std	Y+4, r19	; 0x04
  72:	2b 83       	std	Y+3, r18	; 0x03
  74:	3e 83       	std	Y+6, r19	; 0x06
  76:	2d 83       	std	Y+5, r18	; 0x05
  78:	38 87       	std	Y+8, r19	; 0x08
  7a:	2f 83       	std	Y+7, r18	; 0x07
  7c:	3a 87       	std	Y+10, r19	; 0x0a
  7e:	29 87       	std	Y+9, r18	; 0x09
  80:	3c 87       	std	Y+12, r19	; 0x0c
  82:	2b 87       	std	Y+11, r18	; 0x0b
  84:	3e 87       	std	Y+14, r19	; 0x0e
  86:	2d 87       	std	Y+13, r18	; 0x0d
  88:	80 e0       	ldi	r24, 0x00	; 0
  8a:	90 e0       	ldi	r25, 0x00	; 0
  8c:	60 e0       	ldi	r22, 0x00	; 0
  8e:	70 e0       	ldi	r23, 0x00	; 0
  90:	74 d0       	rcall	.+232    	; 0x17a <__divmodhi4>
  92:	78 8b       	std	Y+16, r23	; 0x10
  94:	6f 87       	std	Y+15, r22	; 0x0f
  96:	3a 8b       	std	Y+18, r19	; 0x12
  98:	29 8b       	std	Y+17, r18	; 0x11
  9a:	81 e0       	ldi	r24, 0x01	; 1
  9c:	90 e0       	ldi	r25, 0x00	; 0
  9e:	60 e0       	ldi	r22, 0x00	; 0
  a0:	70 e0       	ldi	r23, 0x00	; 0
  a2:	6b d0       	rcall	.+214    	; 0x17a <__divmodhi4>
  a4:	6d 8f       	std	Y+29, r22	; 0x1d
  a6:	7e 8f       	std	Y+30, r23	; 0x1e
  a8:	38 a3       	std	Y+32, r19	; 0x20
  aa:	2f 8f       	std	Y+31, r18	; 0x1f
  ac:	6b a7       	std	Y+43, r22	; 0x2b
  ae:	7c a7       	std	Y+44, r23	; 0x2c
  b0:	3e a7       	std	Y+46, r19	; 0x2e
  b2:	2d a7       	std	Y+45, r18	; 0x2d
  b4:	69 af       	std	Y+57, r22	; 0x39
  b6:	7a af       	std	Y+58, r23	; 0x3a
  b8:	3c af       	std	Y+60, r19	; 0x3c
  ba:	2b af       	std	Y+59, r18	; 0x3b
  bc:	fe 01       	movw	r30, r28
  be:	e9 5b       	subi	r30, 0xB9	; 185
  c0:	ff 4f       	sbci	r31, 0xFF	; 255
  c2:	60 83       	st	Z, r22
  c4:	71 83       	std	Z+1, r23	; 0x01
  c6:	fe 01       	movw	r30, r28
  c8:	e7 5b       	subi	r30, 0xB7	; 183
  ca:	ff 4f       	sbci	r31, 0xFF	; 255
  cc:	31 83       	std	Z+1, r19	; 0x01
  ce:	20 83       	st	Z, r18
  d0:	fe 01       	movw	r30, r28
  d2:	eb 5a       	subi	r30, 0xAB	; 171
  d4:	ff 4f       	sbci	r31, 0xFF	; 255
  d6:	60 83       	st	Z, r22
  d8:	71 83       	std	Z+1, r23	; 0x01
  da:	fe 01       	movw	r30, r28
  dc:	e9 5a       	subi	r30, 0xA9	; 169
  de:	ff 4f       	sbci	r31, 0xFF	; 255
  e0:	31 83       	std	Z+1, r19	; 0x01
  e2:	20 83       	st	Z, r18
  e4:	fe 01       	movw	r30, r28
  e6:	ed 59       	subi	r30, 0x9D	; 157
  e8:	ff 4f       	sbci	r31, 0xFF	; 255
  ea:	31 83       	std	Z+1, r19	; 0x01
  ec:	20 83       	st	Z, r18
  ee:	fe 01       	movw	r30, r28
  f0:	eb 59       	subi	r30, 0x9B	; 155
  f2:	ff 4f       	sbci	r31, 0xFF	; 255
  f4:	31 83       	std	Z+1, r19	; 0x01
  f6:	20 83       	st	Z, r18
  f8:	fe 01       	movw	r30, r28
  fa:	e9 59       	subi	r30, 0x99	; 153
  fc:	ff 4f       	sbci	r31, 0xFF	; 255
  fe:	31 83       	std	Z+1, r19	; 0x01
 100:	20 83       	st	Z, r18
 102:	fe 01       	movw	r30, r28
 104:	e7 59       	subi	r30, 0x97	; 151
 106:	ff 4f       	sbci	r31, 0xFF	; 255
 108:	31 83       	std	Z+1, r19	; 0x01
 10a:	20 83       	st	Z, r18
 10c:	fe 01       	movw	r30, r28
 10e:	e5 59       	subi	r30, 0x95	; 149
 110:	ff 4f       	sbci	r31, 0xFF	; 255
 112:	31 83       	std	Z+1, r19	; 0x01
 114:	20 83       	st	Z, r18
 116:	fe 01       	movw	r30, r28
 118:	e3 59       	subi	r30, 0x93	; 147
 11a:	ff 4f       	sbci	r31, 0xFF	; 255
 11c:	31 83       	std	Z+1, r19	; 0x01
 11e:	20 83       	st	Z, r18
 120:	fe 01       	movw	r30, r28
 122:	e1 59       	subi	r30, 0x91	; 145
 124:	ff 4f       	sbci	r31, 0xFF	; 255
 126:	31 83       	std	Z+1, r19	; 0x01
 128:	20 83       	st	Z, r18
 12a:	40 e0       	ldi	r20, 0x00	; 0
 12c:	50 e0       	ldi	r21, 0x00	; 0
for(i=0;i<8;i++)
 12e:	b8 01       	movw	r22, r16
 130:	0d c0       	rjmp	.+26     	; 0x14c <__SREG__+0x10d>
{
 for(j=0;j<7;j++)
{
PORTB=x[i][j];
 132:	80 81       	ld	r24, Z
 134:	88 bb       	out	0x18, r24	; 24
					  0,1,0,0,0,0,0,1 /
					  0,1,0,0,0,0,0,1 /
					  1,1,1,1,1,1,1,0};
for(i=0;i<8;i++)
{
 for(j=0;j<7;j++)
 136:	2f 5f       	subi	r18, 0xFF	; 255
 138:	3f 4f       	sbci	r19, 0xFF	; 255
 13a:	32 96       	adiw	r30, 0x02	; 2
 13c:	27 30       	cpi	r18, 0x07	; 7
 13e:	31 05       	cpc	r19, r1
 140:	c1 f7       	brne	.-16     	; 0x132 <__SREG__+0xf3>
					  0,1,0,0,0,0,0,1 /
			          0,1,0,0,0,0,0,1 /
					  0,1,0,0,0,0,0,1 /
					  0,1,0,0,0,0,0,1 /
					  1,1,1,1,1,1,1,0};
for(i=0;i<8;i++)
 142:	4f 5f       	subi	r20, 0xFF	; 255
 144:	5f 4f       	sbci	r21, 0xFF	; 255
 146:	48 30       	cpi	r20, 0x08	; 8
 148:	51 05       	cpc	r21, r1
 14a:	59 f0       	breq	.+22     	; 0x162 <__SREG__+0x123>
 14c:	fa 01       	movw	r30, r20
 14e:	84 e0       	ldi	r24, 0x04	; 4
 150:	ee 0f       	add	r30, r30
 152:	ff 1f       	adc	r31, r31
 154:	8a 95       	dec	r24
 156:	e1 f7       	brne	.-8      	; 0x150 <__SREG__+0x111>
 158:	e6 0f       	add	r30, r22
 15a:	f7 1f       	adc	r31, r23
 15c:	20 e0       	ldi	r18, 0x00	; 0
 15e:	30 e0       	ldi	r19, 0x00	; 0
 160:	e8 cf       	rjmp	.-48     	; 0x132 <__SREG__+0xf3>
PORTB=x[i][j];
}
//_delay_ms(1000);

}
}			
 162:	c0 58       	subi	r28, 0x80	; 128
 164:	df 4f       	sbci	r29, 0xFF	; 255
 166:	0f b6       	in	r0, 0x3f	; 63
 168:	f8 94       	cli
 16a:	de bf       	out	0x3e, r29	; 62
 16c:	0f be       	out	0x3f, r0	; 63
 16e:	cd bf       	out	0x3d, r28	; 61
 170:	cf 91       	pop	r28
 172:	df 91       	pop	r29
 174:	1f 91       	pop	r17
 176:	0f 91       	pop	r16
 178:	08 95       	ret

0000017a <__divmodhi4>:
 17a:	97 fb       	bst	r25, 7
 17c:	09 2e       	mov	r0, r25
 17e:	07 26       	eor	r0, r23
 180:	0a d0       	rcall	.+20     	; 0x196 <__divmodhi4_neg1>
 182:	77 fd       	sbrc	r23, 7
 184:	04 d0       	rcall	.+8      	; 0x18e <__divmodhi4_neg2>
 186:	0c d0       	rcall	.+24     	; 0x1a0 <__udivmodhi4>
 188:	06 d0       	rcall	.+12     	; 0x196 <__divmodhi4_neg1>
 18a:	00 20       	and	r0, r0
 18c:	1a f4       	brpl	.+6      	; 0x194 <__divmodhi4_exit>

0000018e <__divmodhi4_neg2>:
 18e:	70 95       	com	r23
 190:	61 95       	neg	r22
 192:	7f 4f       	sbci	r23, 0xFF	; 255

00000194 <__divmodhi4_exit>:
 194:	08 95       	ret

00000196 <__divmodhi4_neg1>:
 196:	f6 f7       	brtc	.-4      	; 0x194 <__divmodhi4_exit>
 198:	90 95       	com	r25
 19a:	81 95       	neg	r24
 19c:	9f 4f       	sbci	r25, 0xFF	; 255
 19e:	08 95       	ret

000001a0 <__udivmodhi4>:
 1a0:	aa 1b       	sub	r26, r26
 1a2:	bb 1b       	sub	r27, r27
 1a4:	51 e1       	ldi	r21, 0x11	; 17
 1a6:	07 c0       	rjmp	.+14     	; 0x1b6 <__udivmodhi4_ep>

000001a8 <__udivmodhi4_loop>:
 1a8:	aa 1f       	adc	r26, r26
 1aa:	bb 1f       	adc	r27, r27
 1ac:	a6 17       	cp	r26, r22
 1ae:	b7 07       	cpc	r27, r23
 1b0:	10 f0       	brcs	.+4      	; 0x1b6 <__udivmodhi4_ep>
 1b2:	a6 1b       	sub	r26, r22
 1b4:	b7 0b       	sbc	r27, r23

000001b6 <__udivmodhi4_ep>:
 1b6:	88 1f       	adc	r24, r24
 1b8:	99 1f       	adc	r25, r25
 1ba:	5a 95       	dec	r21
 1bc:	a9 f7       	brne	.-22     	; 0x1a8 <__udivmodhi4_loop>
 1be:	80 95       	com	r24
 1c0:	90 95       	com	r25
 1c2:	bc 01       	movw	r22, r24
 1c4:	cd 01       	movw	r24, r26
 1c6:	08 95       	ret

000001c8 <_exit>:
 1c8:	f8 94       	cli

000001ca <__stop_program>:
 1ca:	ff cf       	rjmp	.-2      	; 0x1ca <__stop_program>
